ccollections
defaultdict
p0
(c__builtin__
list
p1
tp2
Rp3
S'derrundfunkbeitragerm\xc3\xb6glichtwirtschaftlichunabh\xc3\xa4ngigenjournalismus.'
p4
(lp5
S'SE_GS'
p6
asS'eineausnahmew\xc3\xa4rees,wenndunurquizshowssehenw\xc3\xbcrdest,'
p7
(lp8
g6
aS'SE_GIS'
p9
asS'ichhabeauchkeinelustmehr,mitmeinendatendenb\xc3\xb6rsenwertdiesesunternehmenszusteigern.'
p10
(lp11
g9
aS'SE_E'
p12
asS'wirsolltenamwochenendeandieostseefahren.'
p13
(lp14
S'SE_S'
p15
asS'esseidennderversprocheneeffektunddessenmedizinischernutzensindhandfestnachgewiesen.'
p16
(lp17
g15
ag6
asS'au\xc3\x9ferdemw\xc3\xbcrdendiestra\xc3\x9fenundgesch\xc3\xa4ftevermutlichleerersein,'
p18
(lp19
g6
asS'zwarmagmanmeinen,dasseinlandmitdeninternenpolitischenumw\xc3\xa4lzungenselbstfertigwerdenmuss,'
p20
(lp21
g6
ag6
asS'trotzdemwerdendiegeb\xc3\xbchrenvonjedemverlangt,derkeinebefreiunganmeldet,egal,wievieleger\xc3\xa4tesichineinemhaushaltbefindenundwiesieverwendetwerden.'
p22
(lp23
g15
ag6
ag9
asS'sok\xc3\xb6nnenauchkleineregesch\xc3\xa4ftevonderzus\xc3\xa4tzlichenfreiheitprofitieren,'
p24
(lp25
g6
asS'dienegativenauswirkungendesflugverkehrssindaberbeachtlich.'
p26
(lp27
g6
asS'dassmieterheutzutagebeieinemneueinzugeinenvielh\xc3\xb6herenpreisalsdervormieterzahlenm\xc3\xbcssen,istungerechtundnichtmehrzurechtfertigen.'
p28
(lp29
g6
ag15
asS'jedochsollteniemandmehrals40jahrearbeitenm\xc3\xbcssen.'
p30
(lp31
g15
asS'manchem\xc3\xb6gendaskonzeptderschul-uniformanachronistischfinden,'
p32
(lp33
g6
asS'dieaktuelleregelungzurberechnungdergesamtnotesolltedaherbeibehaltenwerden.'
p34
(lp35
g15
asS'"eigentumverpflichtet"lauteteingrundsatzunserergesellschaftsordung.'
p36
(lp37
sS'dochdannverkennensiedieauswirkungenaufdenstra\xc3\x9fenverkehr.'
p38
(lp39
g6
asS'esgibtn\xc3\xa4mlichstraft\xc3\xa4ter,diegegenguteverpflegung,keinesteuern,diebezahltwerdenm\xc3\xbcssen,keinstressumdiearbeit,gerneindengef\xc3\xa4ngnissen"leben".'
p40
(lp41
S'SE_UNK'
p42
ag6
ag42
ag6
asS'dassolltejedemnachdenenth\xc3\xbcllungenvonedwardsnowdenklarsein.'
p43
(lp44
g15
asS'bildungundausbildungsindgrundrechte,diederstaat,diegesellschaftleistenm\xc3\xbcssen.'
p45
(lp46
g6
asS'trotzderstarken,zeitweisezueskalierendrohendenauseinandersetzungeninkiew,'
p47
(lp48
g15
asS'kontrollenk\xc3\xb6nntendazubeitragen,dassdieeinzelnendiensteinihrenbishersehrundurchsichtigenhandlungsspielr\xc3\xa4umeneingeschr\xc3\xa4nktwerden.'
p49
(lp50
g9
ag9
asS'einerwiedergutmachungmusseinet\xc3\xbcroffengehaltenwerden.'
p51
(lp52
g6
asS'brauchtesjanichtmaldopingkontrollen,sondernnureineneutralekonsole.'
p53
(lp54
g42
ag6
asS'dasieeinemaximalemietpreiserh\xc3\xb6hungeinkalkulierenk\xc3\xb6nnen.'
p55
(lp56
g6
asS'videospiele,beimirnamentlichfifa,k\xc3\xb6nnenjungemenschenstundenlang,intensiverundemotionalerbegeisternalsjedersportderwelt!'
p57
(lp58
g15
asS'nurbleibtdiefrage,obesmitderfr\xc3\xbchen"freizeit"sch\xc3\xb6nerwird,wennmannichtwei\xc3\x9f,wasmandenganzentagmachensollundstatistischnochknapp20(!!!)jahrezulebenhat?'
p59
(lp60
g15
ag6
asS'dasieletztendlichjadochaml\xc3\xa4ngerenhebelsitzen.'
p61
(lp62
g42
asS'dennochm\xc3\xb6chtekaumjemandsichoderseinekinderineinheits-uniformkleiden.'
p63
(lp64
g12
asS'gleichzeitiggehtdiegeburtenratezur\xc3\xbcck.'
p65
(lp66
g42
asS'aberduguckstjaeherbigbrotherundx-diaries.'
p67
(lp68
g42
asS'allerdingswerdenhaupts\xc3\xa4chlichnuraushilfen(alsostudenten,sch\xc3\xbcler,etc.)eingestellt,'
p69
(lp70
g6
asS'derbruchdesv\xc3\xb6lkerrechtssolltewohlmehralsgenugsein,um\xc3\xbcbereinereaktionnachzudenken!'
p71
(lp72
g12
ag12
asS'aberdiesekurzfristigenschwankungendergeburtenrate\xc3\xa4ndernnichtsandergenerellenentwicklung.'
p73
(lp74
g42
asS'au\xc3\x9ferdembestehtdasrisiko,dassfrauendierezeptfreie"pilledanach"alsverh\xc3\xbctungsersatzverwendenk\xc3\xb6nnten.'
p75
(lp76
g6
asS'mitderzunehmendendigitalisierungdergesellschaftwirddasherk\xc3\xb6mmlichemodelldeswochenendesbald\xc3\xbcberholtsein.'
p77
(lp78
g42
asS'weilsiemitdererh\xc3\xb6hungihreausgabenanpassenk\xc3\xb6nnen,'
p79
(lp80
g6
asS'hundehaufensindekligundeinhygienischesproblem.'
p81
(lp82
g6
asS'allerdingsgibteskeinenachweislichendaten,dassdieseheilungnichtnuraufdemplacebo-effektberuht.'
p83
(lp84
g9
ag6
asS'unddiestimmunganderb\xc3\xb6rseinsgesamtbesserseink\xc3\xb6nnte,'
p85
(lp86
g15
asS'denneinegutegesamtnoteh\xc3\xa4ltzwarvielet\xc3\xbcrenoffen,'
p87
(lp88
g6
asS'dochwasbringteinewunderbarausgestatteteuniversit\xc3\xa4t,wennsiedemgro\xc3\x9fteilderschlauenmenschengarkeinechancegibt,mitdertollenausstattungihrenhorizontzuerweitern?'
p89
(lp90
g6
aS'SE_Q'
p91
ag42
asS'sodasseinenutzungdestempelhoferfeldes,dasvielfreiraumbietetundzurzeitkaumbebautist,alswohnraumeinesinnvolleideeist.'
p92
(lp93
g15
ag15
ag15
asS'obwohldieukrainezwareineurop\xc3\xa4ischeslandist'
p94
(lp95
g15
asS'undandererseitsistdieaktienichtsoanf\xc3\xa4lligwiedieandererit-unternehmen.'
p96
(lp97
g42
asS'au\xc3\x9ferdembringteinjungerersatzspielerimmerauchneuenschwunginsteam.'
p98
(lp99
g42
asS'esistjedochnichtm\xc3\xb6glich,dieszukontrollieren,umdifferenziertegeb\xc3\xbchrenzuerheben.'
p100
(lp101
g15
ag9
ag9
asS'dassollteallerdingsbeidermasseansendungenundsendern,diesowiesomeistensdasgleichezeigen,keinproblemsein.'
p102
(lp103
g6
ag6
ag42
asS'solltesichdieeuschleunigsteinmischen!'
p104
(lp105
g42
asS'diegentrifizierungzerst\xc3\xb6rtganzestadtteileundderenkultur.'
p106
(lp107
g12
asS'studiengeb\xc3\xbchrend\xc3\xbcrftennichtgenerellanuniversit\xc3\xa4tenerhobenwerden.'
p108
(lp109
g6
asS'waswiederuminallgemeinsauberereb\xc3\xbcrgersteigeresultierenw\xc3\xbcrde.'
p110
(lp111
g15
asS'undau\xc3\x9ferdemsinddurchdieheutigemedizininvielenberufsspartendiemeistenmenschenauchimhohenalternocheinsatzf\xc3\xa4higeralsfr\xc3\xbcher.'
p112
(lp113
g42
asS'nurin\xc3\xb6ffentlich-rechtlichenfernsehsendungenk\xc3\xb6nnenzuschauerinformationenerhalten,dienichtgewinnorientiertsind.'
p114
(lp115
g6
ag6
asS'unddieukrainischeoppositionvorallemanderdurchsetzungeinertragf\xc3\xa4higendemokratieinteressiertist,'
p116
(lp117
g15
asS'studiengeb\xc3\xbchrenbedingeneineverl\xc3\xa4ngerungderstudienzeiten.'
p118
(lp119
g6
asS'nichtjedersollteverpflichtetsein,denrundfunkbeitragzubezahlen.'
p120
(lp121
g9
ag6
asS'allerdingskanninunsererzivilisiertenwelt,ineinemdemokratischenland,dasvolkwohl\xc3\xbcbersichselbstbestimmen,'
p122
(lp123
g15
ag12
asS'jedochistdasgelddergesundheitskasseneinegemeinschaftsleistungallerbeitragszahler.'
p124
(lp125
g15
asS'f\xc3\xbcraufdemb\xc3\xbcrgersteighinterlassenehundehaufensolltemanhundebesitzerruhigetwasmehrzurkassebitten.'
p126
(lp127
sS'\xc3\x9cberm\xc3\xa4\xc3\x9figerfleischkonsumistungesund.'
p128
(lp129
g6
asS'undderwunschdesfr\xc3\xbchenschwangerschaftsabbruchseinrechteinerjedenfrau.'
p130
(lp131
g15
asS'sollteauchjederseinenbeitragleisten.'
p132
(lp133
g42
asS'undm\xc3\xbcssenschondeshalbstarkkontrolliertwerden,ummissbrauchzuverhindern.'
p134
(lp135
g6
ag9
asS'au\xc3\x9ferdemistdieh\xc3\xbcrde,videospieleolympischzumachenminimal,'
p136
(lp137
g12
ag6
asS'entsorgtmandiehaufenselbstundsofort,isteinegeldbu\xc3\x9fenichterforderlich.'
p138
(lp139
g6
ag42
asS'eine\xc3\x96ffnungansonn-undfeiertagenw\xc3\xbcrdedaherkundenundgesch\xc3\xa4ftenhelfen.'
p140
(lp141
g42
asS'aberohnerezeptpflichtf\xc3\xa4lltauchdie\xc3\xa4rztlicheberatungvordereinnahmeweg.'
p142
(lp143
g42
asS'zudemistderankaufsolchercdsistheuteunn\xc3\xb6tig,'
p144
(lp145
g6
ag9
asS'derpatientk\xc3\xb6nntedarauslernen,ges\xc3\xbcnderundbewusstermitseinemk\xc3\xb6rperumzugehen.'
p146
(lp147
g6
ag9
asS'siebietenzwardenvorteil,dassdiekonkurrenzvonmarkenkleidungunddiebenachteiligungsozialschwacherverhindertwerden.'
p148
(lp149
g15
ag9
asS'universit\xc3\xa4tensindf\xc3\xbcralleb\xc3\xbcrgerda,unabh\xc3\xa4ngigvomgeldbeutel.'
p150
(lp151
g6
asS'dochdieseausgabenm\xc3\xbcsstenauchdurchminimalemieterh\xc3\xb6hungen\xc3\xbcberdengesamtenmietzeitraumgetilgtwerdenk\xc3\xb6nnen.'
p152
(lp153
g6
asS'einleichtererzugangzurpilledanachk\xc3\xb6nnteau\xc3\x9ferdemdazuf\xc3\xbchren,dasssiealsbequemererweggegen\xc3\xbcberanderenverh\xc3\xbctungsmethodenerscheint,diegesundheitlichaberwenigerfolgewirkungenhaben.'
p154
(lp155
g6
ag6
ag6
asS'jedochsinddieseaufderverpackungsbeilageohneweiteresnachzulesen'
p156
(lp157
g42
asS'aberhundehaufenzuentfernenistnunmalpflichtdeshundehalters.'
p158
(lp159
g42
asS'jedermensch,auchder,dereinverurteilungsw\xc3\xbcrdigesverbrechenbegangenhat,kannsichzueinerbereuendenmeinungs\xc3\xa4nderungdurchringen.'
p160
(lp161
g12
ag12
asS'wirberlinersolltendiechancenutzenundvorreiterimm\xc3\xbclltrennenwerden!'
p162
(lp163
g15
ag15
asS'undwiesollichdassmachen,wenndiegesch\xc3\xa4ftenichtoffensind,wennichfreihabe?'
p164
(lp165
g91
ag6
ag15
asS'einbesonderesproblemw\xc3\xa4reauchdieeinf\xc3\xbchrungsphasederrentemit63,'
p166
(lp167
g6
asS'diepolitikversuchtunsdamitzuberuhigen,dassmaneigentlichnureinenkleinenteildesvielengeldeswirklichausg\xc3\xa4be.'
p168
(lp169
g15
ag15
asS'zwarw\xc3\xa4reeindeutlichh\xc3\xb6hererzuschussvombundf\xc3\xbcrdieberlinerkassennat\xc3\xbcrlichnochbesser,'
p170
(lp171
g9
asS'dietodestrafeistkeinel\xc3\xb6sung,'
p172
(lp173
g6
asS'diebachelor-arbeitspiegeltinhaltlichwiemethodischdieerlernteninhaltedesstudiumswieder.'
p174
(lp175
g6
asS'eigentlichsolltennurdieeinenrundfunkbeitragzahlen,dieauchwirklichard,zdf,arteusw.gucken.'
p176
(lp177
g9
asS'soz.b.planungsf\xc3\xa4higkeit,reaktionsschnelligkeitundkombinationsf\xc3\xa4higkeit,umnureinigezunennen.'
p178
(lp179
g15
asS'obwohlsichdiearbeitsdichteinvielenberufenimmermehrverdichtet'
p180
(lp181
g6
asS'eineunkontrolliertearbeitdergeheimdienstebirgtaberdiegefahrdesmissbrauchsihrerkompetenzen.'
p182
(lp183
g6
asS'kurioserweisegibtesjedochtrotzdemwerbungundproduktplatzierungaufden\xc3\x96ffentlichen.'
p184
(lp185
g6
asS'dieseheilverfahrenk\xc3\xb6nnendurchdasaktivemittunderpatientenh\xc3\xa4ufigbesserungdeszustandesbewirken.'
p186
(lp187
g15
asS'imallgemeinenwirdabereinesehrsaubereumgebungunddievorbildwirkungvonanderendenhundehaltereherzumeinsammelnderh\xc3\xa4ufchenveranlassen,alseinepotentiellestrafe.'
p188
(lp189
g42
ag42
asS'undseinkundenstammschrumpftstetig.'
p190
(lp191
g15
asS'eigent\xc3\xbcmergef\xc3\xbchrtegesch\xc3\xa4ftewerdenm\xc3\xb6glicherweisevonderzus\xc3\xa4tzlichenarbeitszeitansonn-undfeiertagen\xc3\xbcberfordert,'
p192
(lp193
g6
asS'derpharmaindustriekanndiesnurwenigschadenbringen,'
p194
(lp195
g9
asS'esw\xc3\xa4realsosinnvoll,denaufwandderabschlussarbeit(en)entsprechendanzupassen.'
p196
(lp197
g6
asS'weilsichdiegr\xc3\xb6\xc3\x9federgew\xc3\xbcnschtenwohnungimlaufeeineslebens\xc3\xa4ndert.'
p198
(lp199
g12
asS'daeinechancedergenesungbesteht.'
p200
(lp201
g15
asS'undsoetwasgibtesnurbeigeschwistern.'
p202
(lp203
g12
asS'undmanwirdmitdemprachtst\xc3\xbcckjasicheroftschnellunterwegssein.'
p204
(lp205
g15
asS'siesolltennichtf\xc3\xbcrpers\xc3\xb6nlichevorliebenohnenachweislichennutzenaufgewendetwerden.'
p206
(lp207
g15
asS'weilbeidewegezurverhinderung,minderungoderheilungeinerkrankheitf\xc3\xbchrenk\xc3\xb6nnten.'
p208
(lp209
g6
asS'die"pilledanach"solltenurnachberatungdurcheinenarztodereinenapothekerverschriebenwerden.'
p210
(lp211
sS'manchebef\xc3\xbcrchteneinenzusorglosenumgangmitsolchenmitteln,'
p212
(lp213
g6
asS'hundehaufenaufgehwegensindeineechtegefahr.'
p214
(lp215
g6
asS'genaudiesernachweisfehltjedochindenmeistenf\xc3\xa4llen.'
p216
(lp217
g15
asS'undsichaufdieseweisederfertigstellungsterminaufunbestimmtezeithinausz\xc3\xb6gernw\xc3\xbcrde.'
p218
(lp219
g9
asS'aberauchf\xc3\xbcraktuelleolympischedisziplinen,icherinneremichzuletztancurlingoder50kmski-langlauf,mussmanmehralseinfreaksein,sichdasl\xc3\xa4ngeralsinderzusammenfassungreinzuziehen.'
p220
(lp221
g12
ag6
ag12
ag15
asS'dennwiederj\xc3\xbcngstensa-abh\xc3\xb6rskandalgezeigthat,istdielandesregierungvermeintlichnichtimmermitdent\xc3\xa4tigkeitsbereichenseinernachrichtendienstevertraut.'
p222
(lp223
g15
ag15
asS'gro\xc3\x9fveranstaltungen,dienationalodergarinternationalaufmerksamkeiterregen,ziehenvielebesucheran,'
p224
(lp225
g6
ag6
asS'diemietpreisesolltenbeieinemmieterwechseldurcheineh\xc3\xb6chstgrenzelimitiertsein.'
p226
(lp227
g6
asS'schuluniformensolltenanunserenschulenwiedereingef\xc3\xbchrtwerden.'
p228
(lp229
g15
asS'sodassscharlataneundschwindler,unbemerktf\xc3\xbcrdiepatienten,dieseaus\xc3\xbcbenk\xc3\xb6nnen.'
p230
(lp231
g6
ag6
ag6
asS'diegr\xc3\xb6\xc3\x9fedesfeldesl\xc3\xa4sstsowohlwohnbebauungalsauchgro\xc3\x9fz\xc3\xbcgigefreir\xc3\xa4umezu.'
p232
(lp233
g42
asS'au\xc3\x9ferdemkommtervielzuseltenzumtraining,'
p234
(lp235
g15
asS'esw\xc3\xa4rejedochdenkbar,seitensdesstaatesmehrindieausbildungundkontrolledieserberufsspartezuinvestieren.'
p236
(lp237
g6
ag42
asS'dennbezahlbarerwohnraumistknapp.'
p238
(lp239
g6
asS'berlintegelistalszentrumsnaherflughafengeradef\xc3\xbcrgesch\xc3\xa4ftsreisendeattraktivundsollteunbedingtoffenbleiben.'
p240
(lp241
g15
ag15
asS'besondersdiej\xc3\xbcngerengenerationensindaufdasangebotder\xc3\xb6ffentlich-rechtlichensendernichtmehrangewiesen.'
p242
(lp243
g6
asS'zwarverweisendiepatientenoftaufeinelinderungihrerbeschwerdennachderartigenbehandlungen.'
p244
(lp245
g6
asS'deswegensolltejedereinantivirenprogrammaufseinemwindows-computerhaben.'
p246
(lp247
g6
asS'jedochistsportimallgemeinenmitk\xc3\xb6rperlicherert\xc3\xbcchtigungverbunden.'
p248
(lp249
g6
asS'wannimmerpeteraufeinerpartyeineexfreundintrifft,verzichtetervorsichtshalberaufweiterenalkoholkonsum.'
p250
(lp251
g15
ag12
asS'daherm\xc3\xbcssengeheimdiensteimrahmenvonparlamentarischenkontrollaussch\xc3\xbcssenkontrolliertwerden.'
p252
(lp253
g42
asS'sprecheichmichabsolutf\xc3\xbcrdasrezeptfreieerhaltender\xe2\x80\x9epilledanach\xe2\x80\x9cinderapothekeaus.'
p254
(lp255
g15
asS'sehrschlimmallerdings,wenndiemieteaufeinmal100,-bis200,-\xe2\x82\xacsteigt.'
p256
(lp257
g12
ag12
asS'undandere,wiedermusikantenstadloderdievielentelenovelas,sindnurf\xc3\xbcrbestimmtezuschauergruppeninteressant.'
p258
(lp259
g15
asS'sodassdieserideellinvielenbereichennichtunterst\xc3\xbctzenswerterscheint.'
p260
(lp261
g15
asS'dochvielepatientenempfindensubjektiveinelinderungoderheilungihrerbeschwerden,'
p262
(lp263
g6
asS'au\xc3\x9ferdemdarfichdasgro\xc3\x9fe,bequemeautovonmeinenelternnehmen.'
p264
(lp265
g42
asS'zwarverhindernsienichtgenerell,dassmansicheinenviruseinf\xc3\xa4ngt,'
p266
(lp267
g12
ag15
asS'f\xc3\xbcrdiebachelorarbeithatmaninlinguistischenstudieng\xc3\xa4ngeninderregelnurachtwochenzeit.'
p268
(lp269
g6
asS'auchdie(kassen-)\xc3\xa4rztlichekunstistinvielenf\xc3\xa4llennichterfolgreich'
p270
(lp271
sS'diemenschheithatinihrergeschichtegenugfehlergemacht,indemsiezulangegewartethatundalssiedannreagierte,bliebmeistnurnochderkrieg.'
p272
(lp273
g15
ag6
ag15
asS'zuvieleversprechensindnichtgehaltenworden.'
p274
(lp275
g42
asS'einehundehaufenfreiestadtwirdnichtnurf\xc3\xbcrdiebewohner,sondernauchf\xc3\xbcrtouristenvielattraktiversein!'
p276
(lp277
sS'eineh\xc3\xb6herestrafe,dassdiehundebesitzertieferindietaschegreifenm\xc3\xbcssten,solln\xc3\xa4mlichabschreckendwirken.'
p278
(lp279
g6
ag15
ag42
asS'zwaristdaserstelleneinersolchenwissenschaftlichenarbeiteinedergrundlegendstenkompetenzen,dieinsprachwissenschaftlichenstudieng\xc3\xa4ngenerworbenwerdenmuss.'
p280
(lp281
g9
ag9
asS'unddasalterderk\xc3\xb6rperlichenundgeistigengesundennimmtnachhaltigzu.'
p282
(lp283
g6
asS'dennochsolltenfrauenvordereinnahme\xc3\xbcberdierisikenaufgekl\xc3\xa4rtwerdenundgyn\xc3\xa4kologischuntersuchtwerden.'
p284
(lp285
g15
asS'aber\xc3\xa4hnlicheregelungengibtesschlie\xc3\x9flichoftauchf\xc3\xbcrfahrr\xc3\xa4deraufparkwegen.'
p286
(lp287
g6
asS'istaberf\xc3\xbcrdenarbeitgebernichterstrangig.'
p288
(lp289
g6
asS'eswirdaufonlinezeitschriftenstattaufdietagesthemenzur\xc3\xbcckgegriffen.'
p290
(lp291
g9
asS'derstaatsollmordeverhindern-nichtr\xc3\xa4chen.'
p292
(lp293
g15
asS'mitderba-arbeitkannmanjedochdieinteressenunddiefachkenntnissebesondersgutzeigen.'
p294
(lp295
g6
asS'undindunklenumgebungensinddiebilderschnellverrauscht.'
p296
(lp297
g6
asS'andererseitshabendieolympischedisziplinenzudemeinenkulturellbedingtencharakter.'
p298
(lp299
g6
asS'wiebeideinembruder.'
p300
(lp301
g15
asS'diewahldesbehandelndenarztesstehtdempatientenfrei.'
p302
(lp303
g15
asS'aberkeinernstzunehmender\xc3\x96konomwolltediesevorhersagebisherbest\xc3\xa4tigen.'
p304
(lp305
g42
asS'essolltevielh\xc3\xb6heregeldstrafenf\xc3\xbcraufgehwegenhinterlassenehundehaufengeben.'
p306
(lp307
g6
asS'besondersf\xc3\xbcrberufst\xc3\xa4tigekundenw\xc3\xbcrdeesabergr\xc3\xb6\xc3\x9fereflexibilit\xc3\xa4tundwenigernervenaufreibendesto\xc3\x9fzeitenunterderwochebedeuten.'
p308
(lp309
g9
asS'beispielsweisek\xc3\xb6nntediepilledanachdeneinsatzvonkondomenzur\xc3\xbcckgehenlassenundsodieaidsneuansteckungensteigenlassen.'
p310
(lp311
g6
ag42
asS'zudemistdiefleischproduktionvergleichsweiseressourcen-intensiv.'
p312
(lp313
g6
asS'zwaristeinh\xc3\xb6heresbu\xc3\x9fgeldgeradef\xc3\xbcrfinanziellschlechtergestelltepersonennichtbesondersgut,'
p314
(lp315
g9
asS'vielemenschenerfahrennachweislichdurchnatur-undheilpraktikerdeutlichelinderungdersymptomeunddeskrankheitsgrades.'
p316
(lp317
g6
asS'somitsolltedersonntageintagdesbeisammenseinsderfamiliesein,'
p318
(lp319
g15
asS'klarm\xc3\xbcssendannauchleuteamwochenendeindenl\xc3\xa4denarbeiten,'
p320
(lp321
g6
asS'vieleeurop\xc3\xa4ischel\xc3\xa4nder,beispielsweisedieniederlande,schwedenodergro\xc3\x9fbritannien,habendasbereitserkanntunddie\xc3\x96ffnungszeitendergesch\xc3\xa4fteerfolgreichangepasst.'
p322
(lp323
g42
ag12
ag42
asS'wenndiesest\xc3\xa4rkergewichtetwird,k\xc3\xb6nntedasvieleguteeinzelleistungendesstudiumsstark\xc3\xbcberdecken.'
p324
(lp325
g15
ag15
asS'dieideedesbachelorstudiumsist,diegesamtnoteauszahlreicheneinzelleistungenzusammenzusetzen,umdieendnotezugenerieren.'
p326
(lp327
g15
ag12
ag12
asS'dadieauswirkungenderpilledanach,geradewegenihrer\xc3\xbcberwiegendabtreibendenwirkung,somassivsind,'
p328
(lp329
g42
ag6
ag15
asS'unddaesaufgabedergesellschaftist,bestimmtegebiete,diemarktwirtschaftlichnichtbestehenk\xc3\xb6nnten,gemeinsamzufinanzieren,'
p330
(lp331
g6
ag42
ag6
asS'dennjetztendlichliegtdieseentscheidungindenh\xc3\xa4ndendesjeweiligenregierungschefs.'
p332
(lp333
g42
asS'undeineungewollteschwangerschaftkannsowohlf\xc3\xbcrdieelternalsauchdaskindeineschwerebelastungf\xc3\xbcrdenrestdeslebensdarstellen.'
p334
(lp335
g6
asS'aberansonstenerf\xc3\xbclltderwagensoziemlichjedenwunsch.'
p336
(lp337
g42
asS'solltestduibmaktienkaufen,wennduinvestierenwillst.'
p338
(lp339
g15
ag6
asS'unddenneuenmieternistebenfallsgeholfen,'
p340
(lp341
g6
asS'zwarbehauptetralf,dasssiegemeinsameierlik\xc3\xb6rgetrunkenh\xc3\xa4tten.'
p342
(lp343
g12
ag9
asS'selbstwenndaf\xc3\xbcreigentlichdiebetriebs-eigenensicherheitskr\xc3\xa4ftegedachtwaren.'
p344
(lp345
g6
asS'au\xc3\x9ferdemsinddiestrafenf\xc3\xbcr\xc3\xb6ffentlichesuriniereneinesmenschenh\xc3\xb6heralsf\xc3\xbcrdasliegenlasseneineshundehaufensaufdemgehsteig,wasunangemessenist.'
p346
(lp347
g6
ag6
asS'derarztk\xc3\xb6nnteihnzwarmitgenugschmerzmittelnspieltauglichschreiben,'
p348
(lp349
g15
asS'auschristlicherundhumanistischersichtistesnichterlaubt,jemandenzut\xc3\xb6ten.'
p350
(lp351
g15
asS'daichselbstapothekerbin,'
p352
(lp353
g9
asS'wenngleicherauchohnetrainingsehrgutspielenkann.'
p354
(lp355
g15
asS'diegeldstrafenzuerh\xc3\xb6henistalsoderrichtigeweg.'
p356
(lp357
g42
asS'ebenso,wieandereangebotederkulturoderinfrastruktur,sindauchdie\xc3\x96ffentlichrechtlichensenderunabh\xc3\xa4ngigdavonzufinanzieren,obdereinzelnediesesangebotnutztodernicht.'
p358
(lp359
g42
ag15
ag9
asS'ausmedizinischersichtgesehen,istdie\xe2\x80\x9epilledanach\xe2\x80\x9camwirksamsten,wennsiem\xc3\xb6glichstschnellnachdemverkehreingenommenwird.'
p360
(lp361
g6
ag15
ag15
asS'unddasdarfmannichtungenutztlassen,'
p362
(lp363
g15
asS'die"pilledanach"hateinevielzahlvonnebenwirkungen.'
p364
(lp365
sS'wof\xc3\xbcrzahltmandannnoch?dassimmerdiegleichenschauspieltruppensicheinenlenzanexotischendrehortenmachen?'
p366
(lp367
g91
ag91
asS'daaberinrusslandnebengasund\xc3\x96lnurpropagandaundkorruptionherrschen,'
p368
(lp369
g15
asS'dieschlie\xc3\x9fungvontegelwirdgesundheitlichevorteilef\xc3\xbcrhunderttausendeindereinflugschneisehaben.'
p370
(lp371
g12
asS'dieuniversit\xc3\xa4tenindeutschlandsolltenaufkeinenfallstudiengeb\xc3\xbchrenerheben.'
p372
(lp373
g6
asS'derenbehandlungsmethodenund-erfolgesindzwarnichthinreichenderforschtodernachgewiesen.'
p374
(lp375
g6
asS'allerdingsistesso,dasswirapothekergesetzlichdazuverpflichtetsind,diepatientenaufzukl\xc3\xa4renunddasselbefachwissenbesitzen,wie\xc3\x84rzte.'
p376
(lp377
g6
ag6
ag42
asS'auchdiedrehb\xc3\xbcchersindoftvoneinanderabgekupfert.'
p378
(lp379
g6
asS"derprototypvonaudi'sneuemsportwagenl\xc3\xa4sstdieherzenvonautoliebhabernh\xc3\xb6herschlagen."
p380
(lp381
g15
asS'dochbringtpolitischemachtauchpolitischeverantwortung,indiesemfalldieverantwortung,dasukrainischevolkvorderzustarkeneinflussnahmederbeidengro\xc3\x9fm\xc3\xa4chtezusch\xc3\xbctzen.'
p382
(lp383
g42
ag15
ag42
asS'einebegrenzungdermietpreiserh\xc3\xb6hungbeimieterwechselistdahernichtzubef\xc3\xbcrworten.'
p384
(lp385
g42
asS'superm\xc3\xa4rkteundeinkaufszentrensolltenanbeliebigensonn-undfeiertagenge\xc3\xb6ffnetwerdend\xc3\xbcrfen.'
p386
(lp387
g6
asS'dennochwerdenindensechsodersiebensemesternstudiuminhaltevermittelt,dieebenfallsentsprechendinsgewichtfallenm\xc3\xbcssen.'
p388
(lp389
g15
ag42
asS'denanteilandergesamtnotetrotzdemnachobenzukorrigieren,w\xc3\xbcrdedemverh\xc3\xa4ltniszuanderenerbrachtenstudien-undpr\xc3\xbcfungsleistungennichtentsprechen.'
p390
(lp391
g15
ag15
asS'derpreisdruckisteinfachzugro\xc3\x9f,'
p392
(lp393
g9
asS'dasichniemanddasrechtanma\xc3\x9fenkann,\xc3\xbcberlebenodertodeinesanderenmenschenzuentscheiden.'
p394
(lp395
g12
ag15
asS'aberdassmenschenmitgleichemeinkommenpl\xc3\xb6tzlichmehrzahlensollenundnichtmehrinderselbenwohnunglebend\xc3\xbcrfen,scheintunplausibel.'
p396
(lp397
g15
ag6
ag15
asS'deutscheuniversit\xc3\xa4tensolltenaufkeinenfallstudiengeb\xc3\xbchrenverlangen.'
p398
(lp399
g15
asS'nat\xc3\xbcrlichgibtesauchim\xc3\x96ffentlich-rechtlicheneinigesendungen,diedenrundfunkbeitragnichtwertsind,'
p400
(lp401
g6
ag6
asS'dadasarealmitteninderstadt(hauptstadt)liegt.'
p402
(lp403
sS'zwarg\xc3\xa4beesdenvorteil,sichdiepeinlichkeiteinesarztbesuchesoderdasn\xc3\xa4chtlichein-die-ambulanz-fahrenzusparen,'
p404
(lp405
g42
ag15
ag6
asS'jedemmussdiegelegenheitgegebenwerden,seingewissenzusch\xc3\xa4rfenundseinetatm\xc3\xb6glichstwiedergutzumachen.'
p406
(lp407
g12
ag42
asS'diekrankenkassensolltenbehandlungenbeimnatur-oderheilpraktikernichtzahlen,'
p408
(lp409
g6
asS'zumaldermietpreisgegen\xc3\xbcberdemgrundmietpreisf\xc3\xbcreinenausreichendengewinnnichtbeijederneuvermietungangehobenwerdenmuss.'
p410
(lp411
g6
asS'eristeinfachkeinteamspieler,machth\xc3\xa4ufigalleing\xc3\xa4nge.'
p412
(lp413
g9
ag9
asS'ineinenhundehaufenzutretenisteinewiderlicheunddentagungemeinverderbendesache,'
p414
(lp415
g12
asS'auchwennbereitseinigemilliardeneuroindasbestehendeflughafen-gro\xc3\x9fprojektinvestiertwurden'
p416
(lp417
g15
asS'w\xc3\xa4reeineabgabeohne\xc3\xa4rztlicheberatungunverh\xc3\xa4ltnism\xc3\xa4\xc3\x9fig.'
p418
(lp419
g15
asS'ichglaube,berlinhattemitzweiinnerst\xc3\xa4dtischflugh\xc3\xa4fengl\xc3\xbcckinjahrzehntenkeineflugzeugkatastropheerlebenzum\xc3\xbcssen.'
p420
(lp421
S'SE_P'
p422
ag15
asS'schlie\xc3\x9flichistmannichtinjedemfachsehrgut.'
p423
(lp424
g42
asS'au\xc3\x9ferdemhatjochenletztenseinenfallschirmsprunggeschenktbekommen,'
p425
(lp426
g15
asS'dennzuvielfernsehenmachtaufdauerdumm,'
p427
(lp428
g42
asS'trotztodesstrafegeschehenindenusasignifikantmehrmordealsindeutschland.'
p429
(lp430
g6
asS'dadiegesch\xc3\xa4fteanmanchentagenbis22uhrge\xc3\xb6ffnethaben.'
p431
(lp432
g6
asS'ersollsichjaalsjungehinundwiedermitanderenchorknabengebalgthaben,'
p433
(lp434
g6
asS'einewiedereinf\xc3\xbchrungdertodesstrafeindeutschlandw\xc3\xa4reeinr\xc3\xbcckschrittinsmittelalter.'
p435
(lp436
g42
asS'unbestrittenistaber,dassderstaatdurchdenankaufdendruckaufsteuers\xc3\xbcndererh\xc3\xb6ht,sichselbstanzuzeigen.'
p437
(lp438
g12
ag6
ag42
asS'wirbrauchendringendeinenersatzimmittelfeldf\xc3\xbcrdaskommendematch.'
p439
(lp440
g15
asS'istdiesjadiestraftat,diewirnichtmitebensolchervergeltenk\xc3\xb6nnen.'
p441
(lp442
g15
ag15
asS'werbunggibtesinzwischenaufallenkan\xc3\xa4len,'
p443
(lp444
g12
asS'aberbeidenhohenausgabenf\xc3\xbcrdiestar-spielerh\xc3\xa4ttemanmehrerwartenk\xc3\xb6nnen.'
p445
(lp446
g42
asS'undzuvieleressourcengehenverloren,wennzusammenverbranntwird,wasgetrennteigentlichverwertetwerdenk\xc3\xb6nnte.'
p447
(lp448
g6
ag12
ag6
asS'zudemstelltsichimmerwiederheraus,dassauchmenschenunschuldigverurteiltoderhingerichtetwurden.'
p449
(lp450
g6
ag12
ag42
asS'dieneuetourn\xc3\xa9evontokiohotelbrichtallerekorde.'
p451
(lp452
g15
asS'geheimdienstem\xc3\xbcssenst\xc3\xa4rkerkontrolliertwerden,umeinzuausuferndes\xc3\x9cberwachenzuverhindern.'
p453
(lp454
g12
ag6
asS'zudemistderhandelmitinformationenoffensichtlichvonprofitgiergetrieben.'
p455
(lp456
g6
asS'zwarlandetediemannschaftinderligaamendedochnochaufplatzdrei,'
p457
(lp458
g15
asS'deshalbsollteeinbesuchbeimarztunddie\xc3\xa4rztlicheberatungverpflichtendbleiben.'
p459
(lp460
g6
asS'dochw\xc3\xbcrdemandieserlogikfolgen,sow\xc3\xa4redersteuerzahlendeb\xc3\xbcrgerf\xc3\xbcrkaummehreindeliktzurverantwortungzuziehen.'
p461
(lp462
g6
ag42
asS'denvermieternistsogeholfen,'
p463
(lp464
g6
asS'auchmitmodernstenverh\xc3\xbctungsmethodenkanneszufehlernundproblemenkommen'
p465
(lp466
g6
asS'ja,esbestehteinegewisselebensgefahrdabei.'
p467
(lp468
g15
asS'ausdiesengr\xc3\xbcndensollteessuperm\xc3\xa4rkteundeinkaufszentrennichterlaubtsein,anbeliebigensonn-undfeiertagenzu\xc3\xb6ffnen.'
p469
(lp470
g12
ag42
asS'dieba-arbeitsoll,wennnichtdiegesamtnotebilden,dannmindestenseinengr\xc3\xb6\xc3\x9ferenanteildaranhaben.'
p471
(lp472
g6
ag6
ag6
asS'dennsiegef\xc3\xa4hrdetdieverschwiegenheitundsicherheitvongeheimendatenundv-m\xc3\xa4nnern.'
p473
(lp474
g42
asS'denndurchdieniedrigegeburtenratew\xc3\xa4chstderanteilderaltenbev\xc3\xb6lkerungunddamitdierentenkostenimmermehr'
p475
(lp476
g42
ag6
asS'baldistbundestagswahl'
p477
(lp478
g6
asS'nichtnurweilichmichregelm\xc3\xa4\xc3\x9figwundere,werdaalleszumeinenfreundengeh\xc3\xb6renwill.'
p479
(lp480
g6
ag15
asS'h\xc3\xb6heregeldstrafensinddadasrichtigemittelgegennachl\xc3\xa4ssige,fauleodereinfachgedankenlosehundehalter.'
p481
(lp482
g15
ag42
asS'allerdingswirdmandanneinenschlechteren\xc3\x9cberblickdar\xc3\xbcberhaben,wasdennamjeweiligentagnunge\xc3\xb6ffnetist.'
p483
(lp484
g6
ag42
asS'jedochistgeradederenpositivewirkunginbegleitungkonventioneller"westlicher"medizinischertherapiendurchausbelegbar.'
p485
(lp486
sS'au\xc3\x9ferdemgibteskeinbedarff\xc3\xbcrdasoffenhaltendergesch\xc3\xa4fteandensonntagen.'
p487
(lp488
g42
asS'derbersolltevongrundaufanneukonzipiertwerden,'
p489
(lp490
g12
asS'reicheundarmewohneningetrenntenvierteln.'
p491
(lp492
g6
asS'studierenundweiterbildendesstudiummusseingrundrechteinesjedenmenschensein.'
p493
(lp494
g15
asS'geradeindenheimspielenbliebdiemannschaftofthinterdenerwartungenzur\xc3\xbcck.'
p495
(lp496
g12
asS'allerdingsdifferiertderunterschiedlicheaufwandf\xc3\xbcrdieeinzelnen,teilsgleichwertigenmodulestark.'
p497
(lp498
g6
asS'andererseitswerdenausstaatlichenmittelnzahlreichesinnfreieinvestitionenverschwendet,'
p499
(lp500
g6
asS'geheimdiensteneigenn\xc3\xa4mlichzueinemeigenleben(staatimstaate),dasf\xc3\xbcrdemokratischestaatenunverantwortbarw\xc3\xa4re.'
p501
(lp502
g6
ag6
asS'wurdeindenletzten20jahrenderfreiesonntagimmermehrdemverkaufgeopfert.'
p503
(lp504
g6
asS'auchwennvielemenschendenken,dasseinm\xc3\xb6rderbereits\xc3\xbcberlebenundtodeinesanderenmenschenentschiedenhat,'
p505
(lp506
g9
ag42
asS'undzumanderenkannsichkeinmenscheinrechtherausnehmen,\xc3\xbcberdentodeinesanderenmenschenentscheidenzud\xc3\xbcrfen.'
p507
(lp508
g6
ag9
asS'ausserdemwilldochderstaat,dassichmeingeldausgebe,'
p509
(lp510
g15
ag12
asS'sodassdieskaumauswirkungaufvollzeitbesch\xc3\xa4ftigtebzw.diearbeitslosenzahlhat.'
p511
(lp512
g6
asS'aberdenw\xc3\xbcrdepeterauchohneexfreundinniemalsanr\xc3\xbchren.'
p513
(lp514
g42
asS'diebetreffenzwarvorallemdiebritischenundamerikanischengeheimdienste,'
p515
(lp516
g15
asS'denndieserkurskannnurinirgendeinerweisezureskalationf\xc3\xbchren.'
p517
(lp518
g15
asS'deshalbaberfernsehennurnochaneinschaltquotenorientiertanzubietenw\xc3\xa4regef\xc3\xa4hrlich.'
p519
(lp520
g6
asS'durchdasvermehrte\xc3\x96ffnenansonn-undfeiertagensteigtdiebesch\xc3\xa4ftigungszahlund-zeit.'
p521
(lp522
g6
asS'aberauchdieonlineh\xc3\xa4ndlersinddemansturmzwischenzeitlichnichtgewachsengewesen.'
p523
(lp524
g42
asS'obwohleszuwenigm\xc3\xbclleimerundbeutelspenderf\xc3\xbcrhundehaufengibt.'
p525
(lp526
g6
asS'beidiesenbetr\xc3\xa4gen\xc3\xbcberlegtmanessichnocheinmal,obmanwirklichinderwohnungbleibenwill.'
p527
(lp528
g6
ag6
asS'keinmenschodermenschlichesgremiumsolltewiederdieerlaubnisbekommen,\xc3\xbcber"lebenodertod"zuentscheiden.'
p529
(lp530
g15
asS'geradejetzt,dafachkr\xc3\xa4ftem\xc3\xa4ngelauftreten,istesunverantwortlichf\xc3\xbcrdiewirtschaftunddenwohlstandmit63inrentezugehen.'
p531
(lp532
g6
ag42
asS'zudemm\xc3\xbcssteesimsinnederkrankenkassenliegen,naturheilpraktikenals\xc3\xa4rztlichebehandlunganzuerkennen,'
p533
(lp534
g6
ag6
asS'dietodesstrafezuverh\xc3\xa4ngenistunethisch.'
p535
(lp536
g6
asS'sowohldienurschleppendvarangehendenbauma\xc3\x9fnahmen,alsauchdiesichanh\xc3\xa4ufendensicherheitsm\xc3\xa4ngelzeigendeutlichedefiziteindergesamtplanung.'
p537
(lp538
g15
ag42
asS'indeutschlandsolltenkeinestudiengeb\xc3\xbchrenverlangtwerden.'
p539
(lp540
g6
asS'diesentsprichtaucheherdersp\xc3\xa4terenarbeitswelt,inderleistungnichtsingul\xc3\xa4r,sondernregelm\xc3\xa4\xc3\x9figund\xc3\xbcberl\xc3\xa4ngerezeithinwegerbrachtwerdensoll.'
p541
(lp542
g15
ag42
ag6
asS'mank\xc3\xb6nntebef\xc3\xbcrchten,dassunserebauerndadurchinwirtschaftlicheschwierigkeitenkommenw\xc3\xbcrden.'
p543
(lp544
g15
ag15
asS'dieleistungen,diedemspielerteilweiseabverlangtwerden,sindimmensunddurchausmitsportlicheranstrengungzuvergleichen.'
p545
(lp546
g6
ag6
asS'sicherlichmussdervermietereinigeinstandsetzungs-ma\xc3\x9fnahmenvorneueinzugzahlen.'
p547
(lp548
g15
asS'nat\xc3\xbcrlichw\xc3\xa4reessch\xc3\xb6neinfach,wennichnacheinerfeuchtfr\xc3\xb6hlichennachtmitderdisko-bekanntschaftamn\xc3\xa4chstenmorgennurnoch"diepilledanach"nehmenmussunddannberuhigtseinkann.'
p549
(lp550
g15
ag15
asS'dergedankeaneinefernsehlandschaftmitnurnochprivatenkan\xc3\xa4lenmachtmirangst.'
p551
(lp552
g6
asS'denneinerseitsverkaufensichderenprodukteauchinschlechtenzeitennoch,'
p553
(lp554
g15
asS'einehandels\xc3\xbcblichelampekannz.b.biszuf\xc3\xbcnfmilligrammquecksilberenthalten.'
p555
(lp556
g15
asS'videospielesolltenindenreigenderolympischendisziplinenaufgenommenwerden.'
p557
(lp558
g6
asS'derrundfunkbeitragkannnurvonallenb\xc3\xbcrgern/haushaltengleicherma\xc3\x9feneingefordertwerden.'
p559
(lp560
sS'zudemgreifengeheimdiensteindieprivatsph\xc3\xa4rederb\xc3\xbcrgermassivein'
p561
(lp562
g6
asS'inberlinherrschtseitjahrenwohnungsmangel,'
p563
(lp564
g42
asS'beidem,washeutzutageimfernsehenl\xc3\xa4uft,istesangemessen,nurdieleutezahlenzulassen,diediebeitr\xc3\xa4geauchwirklichverfolgen(wollen).'
p565
(lp566
g6
ag6
ag6
ag6
asS'danichtallemehramgleichentagge\xc3\xb6ffnethaben.'
p567
(lp568
g15
asS'h\xc3\xb6heregeldstrafenf\xc3\xbcrhundehaufensindsinnlos,solangeesnichtgen\xc3\xbcgendpersonalgibt,umsiedurchzusetzen.'
p569
(lp570
g6
ag6
ag6
asS'derrundfunkbeitragsolltenurvondeneneingefordertwerden,diedasangebotder\xc3\x96ffentlichrechtlichensenderauchnutzen.'
p571
(lp572
g6
ag6
asS'alsergesternvonralfspartyheimkam,warerimmernochstockn\xc3\xbcchtern.'
p573
(lp574
g15
ag15
asS'parlamentarischekontrollemachtaberdiearbeitvongeheimdienstenschwieriger'
p575
(lp576
g9
asS'hundehaufenaufgehwegenerfordernmeinekomplette,aufdenbodengerichtete,aufmerksamkeitaufdemwegzurarbeit.'
p577
(lp578
g6
ag42
ag42
asS'solltemaneinemlangj\xc3\xa4hrigeneigent\xc3\xbcmernichtdiechanceaufangleichungseinerrenditeaufmarktniveauverwehren.'
p579
(lp580
g6
asS'vielleichtistesf\xc3\xbcreinenzuschauerwenigerspannend,alsf\xc3\xbcrdenspielerselbst,'
p581
(lp582
g42
ag42
asS'wennjedochimmerersteingangzumarzt(mitfahr-undwartezeiten,m\xc3\xb6glichemschamgef\xc3\xbchl,etc.)n\xc3\xb6tigist,f\xc3\xbchrtdieszumehrungewolltenschwangerschaften.'
p583
(lp584
g15
ag6
asS'einigevideospielesindbez\xc3\xbcglichihreranforderungenzwarnichtsportlichrelevant,'
p585
(lp586
g15
asS'dochohnegen\xc3\xbcgendgutausgebildetenachwuchsarbeitskr\xc3\xa4ftegibteskaumeinem\xc3\xb6glichkeitzurausreichendenrentenfinanzierung.'
p587
(lp588
g42
asS'au\xc3\x9ferdemm\xc3\xbcsstenmehrbesch\xc3\xa4ftigungsangebotef\xc3\xbcrdieseniorenbereitgestelltwerden.'
p589
(lp590
g15
asS'offensichtlichkannaberauchdiedrohendetodesstrafeinentsprechendenl\xc3\xa4ndernnichtverhindern,dassesmordundgewaltverbrechengibt.'
p591
(lp592
g15
ag6
asS'abermankannsichinderbachelor-arbeitmalirren.'
p593
(lp594
g6
asS'aberdiehabendannebeninnerhalbderwochefreiundk\xc3\xb6nneninruheterminewahrnehmen,w\xc3\xa4hrendichimb\xc3\xbcrositze.'
p595
(lp596
g6
ag15
ag15
asS'dieentwicklungenindiesemkonfliktsolltennichtalleindenehemaligenkalter-kriegs-opponenten\xc3\xbcberlassenwerden,'
p597
(lp598
g15
asS'schlie\xc3\x9flichgibtesvielemenschenindeutschland,diediebeitragebezahlen,obwohlsielediglicheinenrechnerzumarbeitenverwenden.'
p599
(lp600
g6
ag6
asS'zudemstehensolcheuniformenauchf\xc3\xbcreineideologischegleichschaltungundf\xc3\xbcrdieunterdr\xc3\xbcckungeinerindividuellenpers\xc3\xb6nlichkeitsentfaltung.'
p601
(lp602
g15
ag42
asS'daaberauchskat,schachetc.nichtalsolympischedisziplinengef\xc3\xbchrtwerden,'
p603
(lp604
g6
asS'dennbeih\xc3\xb6herengeschwindigkeitenbrichtderwagenschnellaus'
p605
(lp606
g9
asS'eswerdendurchverschiedenespieleauchverschiedenef\xc3\xa4higkeitengef\xc3\xb6rdertundgefordert,'
p607
(lp608
g12
asS'undwennmandochmalpechhatundeinedervielen"tretminen"trifft,mussmansichdiestinkendenhinterlassenschaftenm\xc3\xbchseligvondersohlekratzen.'
p609
(lp610
g6
asS'einepermanenteerh\xc3\xb6hungdermietebeimieterwechselkannalsovondergesellschaftnichtgewolltsein.'
p611
(lp612
g42
asS'ganzspeziellintegelhabendieanwohnerjahrzehntediebelastungendesflugl\xc3\xa4rmsertragen.'
p613
(lp614
g42
asS'wasaberistmitstraft\xc3\xa4tern,diewirklichschlimmeverbrechenbegangenhaben,wieetwamordodervergewaltigung-sollesdieseneinfacherlaubtsein,weiterzuleben,'
p615
(lp616
g12
ag42
ag91
ag42
ag42
asS'demmietwuchersolltedurchbegrenzungdermietpreiserh\xc3\xb6hungbeiwohnungswechseleinriegelvorgeschobenwerden.'
p617
(lp618
g15
asS'petersollteseineimbissbudesobaldwiem\xc3\xb6glichschlie\xc3\x9fen.'
p619
(lp620
g15
asS'undauchdievorschriftenderverkehrsbetriebewerdenselteneingehalten.'
p621
(lp622
g15
asS'nichtallepraktikenundans\xc3\xa4tze,diesichunterdieserbezeichnungverbergen,m\xc3\xb6gendurchklinischestudienbest\xc3\xa4rktwordensein,'
p623
(lp624
g42
ag9
ag15
asS'dadiekundenamsonntagimdurchschnittentspanntereinkaufen.'
p625
(lp626
g6
asS'deswegenbrauchenwirmehrpolizeipr\xc3\xa4senzin\xc3\xb6ffentlichenverkehrsmitteln,'
p627
(lp628
g6
asS'dusolltestwenigerfernsehen,'
p629
(lp630
g6
asS'imeinzelfallm\xc3\xb6gensietats\xc3\xa4chlichauchabschreckendwirken,'
p631
(lp632
g6
asS'auchsupermarktangestellteundmenschen,dieineinkaufszentrenarbeiten,habendasrecht,einenfreiensonntagzuhaben.'
p633
(lp634
g6
ag6
asS'f\xc3\xbcrhundehaufenaufgehwegensolltediegeldbu\xc3\x9feerh\xc3\xb6htwerden.'
p635
(lp636
g6
asS'deswegensolltensievommarktgenommenwerden,'
p637
(lp638
g6
asS'indeutschlandsolltemandietodesstrafenichtwiedereinf\xc3\xbchren,'
p639
(lp640
g6
asS'unseregesellschaftiststarkvoncomputerngepr\xc3\xa4gtunddigitalisiert.'
p641
(lp642
g15
asS'infriedrichshainoderneuk\xc3\xb6llnkannmansichheutzutagenichtmehrbewegen,ohnepermanentdenbodennachhundehaufenabzusuchen.'
p643
(lp644
g6
ag9
asS'allerdingsleuchtetein,dassdiemitarbeiterdergeznichtdiem\xc3\xb6glichkeitenhaben,diebenutzungjedeneinzelnenger\xc3\xa4teszupr\xc3\xbcfen.'
p645
(lp646
g6
ag12
ag42
asS'auchben\xc3\xb6tigtberlindringendinnerst\xc3\xa4dtischefl\xc3\xa4chenf\xc3\xbcrproduzierendesgewerbeundindustrieundf\xc3\xbcrwohnungen.'
p647
(lp648
g15
asS'eineanhebungdesrelativenrentenaltersanhandderk\xc3\xb6rperlichengesundheitdesdurchschnittsb\xc3\xbcrgersistangemessen.'
p649
(lp650
g42
asS'undesdarfnichtsein,dassdieserm\xc3\xb6chtegern-abenteurermiretwasvoraushat.'
p651
(lp652
g15
ag42
asS'weshalbauchdiestudentenandiesemkostenfaktorbeteiligtwerdensollten.'
p653
(lp654
g6
asS'au\xc3\x9ferdemdarfderm\xc3\xbcllauchnichtstraffreiliegengelassenwerden.'
p655
(lp656
g42
asS'hierbestehtdiegefahr,dassnichtausreichenderfahrenenachwuchskr\xc3\xa4ftezurverf\xc3\xbcgungstehen.'
p657
(lp658
g6
ag42
asS'siesinddamitaberimdurchschnittnichtkr\xc3\xa4nkerundnichtd\xc3\xbcmmer.'
p659
(lp660
g6
asS'einealleinigebestimmungdesmietpreisesanhanddesmarkteswirdjedochzueinerweiterenseparierungdergesellschaftf\xc3\xbchren.'
p661
(lp662
g6
asS'nachderer\xc3\xb6ffnungvomneuenflughafenbersolltetegelalsoaufjedenfallgeschlossenwerden.'
p663
(lp664
g42
asS'dietodesstrafeauszuf\xc3\xbchrenw\xc3\xa4remordundm\xc3\xbcssteebenfallsmitdertodesstrafebestraftwerden.'
p665
(lp666
g6
ag91
asS'esseidennsiew\xc3\xa4renunzerbrechlich.'
p667
(lp668
g15
asS'eingrunddaf\xc3\xbcrist,dasssietrotzderbeseitigungspflichtbisherkaummitkonsequenzenrechnenmussten.'
p669
(lp670
g6
ag42
asS'zwarsindtrashundkrawallgenaudas,waseinemehrheitdermenschensehenwill.'
p671
(lp672
g6
ag6
asS'amschlimmstenaberistseineangewohnheit,grunds\xc3\xa4tzlichbeimschiedsrichterzureklamieren.'
p673
(lp674
g6
ag42
asS'wodurchletztlichauchkostenf\xc3\xbcrbehandlungenundmedikamentederklassischenmedizineingespartwerden.'
p675
(lp676
g9
asS'deshalbsolltedeutschlanddietodesstrafenichteinf\xc3\xbchren!'
p677
(lp678
g15
asS'aberimmernochwirdindeutschlandvielzuvielm\xc3\xbcllproduziert'
p679
(lp680
g6
asS'deswegensolltenwirunsweiterebankenrettungennichterlauben.'
p681
(lp682
g6
asS'stehtm\xc3\xb6glichenunterst\xc3\xbctzerndurchdaseinmischenrusslandsindiedortigepolitikeindeutlichm\xc3\xa4chtigerergegnergegen\xc3\xbcber.'
p683
(lp684
g42
asS'obwohlpolitikerdenchristlichencharakterunsereslandesbetonen,'
p685
(lp686
g6
asS'diemenschenwerdenimdurchschnitt\xc3\xa4lter,'
p687
(lp688
g6
asS'undzudemmiterheblichenrisikenundnebenwirkungenverbunden.'
p689
(lp690
g6
asS'dietodesstrafeisteinrechtsmittel,welchesalssolchesindeutschlandnichtanwendbarist.'
p691
(lp692
g15
ag15
asS'wirhabenbeidegenaudiegleichenzweileberfleckeaufdemlinkenarm'
p693
(lp694
g6
asS'esw\xc3\xa4rerichtig,sieauchzueinerolympischendisziplinzumachen.'
p695
(lp696
g12
ag6
asS'ausserdembietenvieleniedergelassene\xc3\x84rztederleiberatungenundleistungensowiesoparallelan-'
p697
(lp698
g6
asS'deshalbsolltedieverursachungeinessolchenhindernissesst\xc3\xa4rkergeahndetwerden.'
p699
(lp700
g9
asS'diefahrg\xc3\xa4stew\xc3\xbcrdensichdannaufjedenfallsichererf\xc3\xbchlen.'
p701
(lp702
g42
asS'dabeihateinfreiertaginderwochenichtnurdengrund,zeitf\xc3\xbcrdenkirchgangzugewinnen.'
p703
(lp704
g9
ag6
asS'zwaristeinegewissegeheimhaltungbasisf\xc3\xbcrdiearbeitdergeheimdienste.'
p705
(lp706
g6
asS'au\xc3\x9ferdemk\xc3\xb6nnensichnurgro\xc3\x9feunternehmendiezus\xc3\xa4tzlichenpersonalkostenleisten.'
p707
(lp708
g6
asS'auch\xc3\xbcbernimmtmansokeineverantwortungf\xc3\xbcrdiegesellschaft,wennmanauspers\xc3\xb6nlichen/privatengr\xc3\xbcndenseineerfahrene,gesundeundqualitativhochwertigearbeitsf\xc3\xa4higkeitfr\xc3\xbcheralsn\xc3\xb6tigaufgibt.'
p709
(lp710
g15
asS'auchohnestudiengeb\xc3\xbchrenmussjederzweitew\xc3\xa4hrenddesstudierensarbeitenundhatsowenigerzeitf\xc3\xbcrdaslernenunddiefreizeit.'
p711
(lp712
g6
ag6
asS'allerdingsdominierenbereitsheutesuperm\xc3\xa4rkteundgro\xc3\x9feeinkaufszentrendenmarkt.'
p713
(lp714
g6
asS'dassch\xc3\xa4digtdenstandortdeutschlandundhinterl\xc3\xa4sstdiearbeitgeberohne\xc3\x9cbergangsfrist.'
p715
(lp716
g15
asS'schonaussicherheitgr\xc3\xbcndenhalteichdenweiterbetriebf\xc3\xbcrfalsch.'
p717
(lp718
g15
asS'ichbezweiflezwar,dasses\xc3\xbcberhauptjemandengibt,derniemalseinangebotder\xc3\x96ffentlichrechtlichensenderzumindestindirektnutzt.'
p719
(lp720
g15
ag6
ag9
asS'mit63inrente,dashatsichwohljederverdient,derbishierhin(ununterbrochen)geschuftethat.'
p721
(lp722
g6
asS'deswegensolltederregierendeb\xc3\xbcrgermeisterdieh\xc3\xbcrdenf\xc3\xbcrdieaustragungsolcherveranstaltungensoniedrigwiem\xc3\xb6glichhalten.'
p723
(lp724
g15
asS'die"pilledanach"sollterezeptfreiinderapothekeerh\xc3\xa4ltlichsein.'
p725
(lp726
sS'solltedasrentenalterinzukunftnichtweiterbeinur63jahrenliegen.'
p727
(lp728
g9
asS'dennsow\xc3\xa4renverkaufsoffenesonntagebesser\xc3\xbcbersjahrverteilt.'
p729
(lp730
g6
asS'obwohldiegesch\xc3\xa4ftszahlenvonibminletzterzeitnichtumwerfendwaren'
p731
(lp732
g15
asS'wenndeutschlanddietodesstrafeeinf\xc3\xbchrenw\xc3\xbcrde,k\xc3\xb6nntenverurteilteverbrechernichtvorzeitigentlassenwerdenoderausbrechenundneuestraftatenbegehen.'
p733
(lp734
g15
ag6
asS'dasmagf\xc3\xbcrdieangestellteneineumstellungsein,diesichnichtohneweiteresrealisierenl\xc3\xa4sst.'
p735
(lp736
g9
ag6
asS'nochniegabesl\xc3\xa4ngereschlangenandenvorverkaufsschaltern'
p737
(lp738
g12
asS'au\xc3\x9ferdemlebenwirnichtmehrimmittelalter.'
p739
(lp740
g6
asS'heutewerdeichmeinfacebook-kontol\xc3\xb6schen.'
p741
(lp742
g9
asS'diestraft\xc3\xa4tersolltenjedochnichtinluxus-gef\xc3\xa4ngnissensitzen.'
p743
(lp744
g6
asS'selbstverst\xc3\xa4ndlichsolltendiekrankenkassenbehandlungenderalternativenmedizinunterst\xc3\xbctzen.'
p745
(lp746
g6
asS'dieverringerungvonchemischhergestelltenmedikamentenpropersonistaufjedenfallw\xc3\xbcnschenswert.'
p747
(lp748
g6
asS'fehltdenuniversit\xc3\xa4tengeld,mussnachsponsorengesuchtwerden.'
p749
(lp750
g12
ag15
asS'aberdasw\xc3\xbcrdedieverletzunglangfristignurnochschlimmermachen.'
p751
(lp752
sS'"augeumauge"scheintseinensinnzuverfehlen.'
p753
(lp754
sS'dieumsetzungeinerrenteab63jahrenistgesellschaftlichnichtmehrtragf\xc3\xa4hig,'
p755
(lp756
g9
asS'derstaatdarfeinmedizinischesproduktbzw.einemedizinischebehandlungnichtausmoralischengr\xc3\xbcndeneinschr\xc3\xa4nken,solangesieniemandanderensch\xc3\xa4digt.'
p757
(lp758
g12
ag12
asS'vielmehrsolldenmenschendiem\xc3\xb6glichkeiteinesmentalenbreaksgegebenwerden.'
p759
(lp760
g9
asS'nein,dasrentenaltersolltewiederauf65jahreerh\xc3\xb6htwerden.'
p761
(lp762
g15
asS'flugverkehriststarkumweltsch\xc3\xa4dlich.'
p763
(lp764
g12
asS'zumeinenistinunsererverfassungeineunantastbaremenschenw\xc3\xbcrdeverankert'
p765
(lp766
g15
asS'trotzdemsollteregierungschefinmerkelsichdiesesjahrmitdemank\xc3\xbcndigenvonwahlgeschenkenbesserzur\xc3\xbcckhalten.'
p767
(lp768
g42
asS'energiesparlampenenthalteneinebetr\xc3\xa4chtlichemengegiftstoff.'
p769
(lp770
g6
asS'dietiereansichk\xc3\xb6nnenzwarnichtsdaf\xc3\xbcr,'
p771
(lp772
sS'geheimdienstesolltenst\xc3\xa4rkervomparlamentkontrolliertwerden,'
p773
(lp774
g12
asS'einebankenrettungkostetsehr,sehrvielgeld.'
p775
(lp776
g12
asS'hundehalterm\xc3\xb6gendenken,dasseinhundehaufennureinharmlosesekreteinestiereswiejedesandereist.'
p777
(lp778
g6
ag6
asS'zudemleidetdasfamilien-undprivatlebenmassivunterdieserverk\xc3\xbcrzungundverschiebungderfestenruhezeiten.'
p779
(lp780
g6
asS'diesw\xc3\xbcrdebedeuten,dassinzukunftvielearbeitskr\xc3\xa4fteindenunternehmenfehlenwerden.'
p781
(lp782
g6
ag15
asS'ichbinnichtderauffassung,dassdasrentenalterbei63jahrenliegensollte.'
p783
(lp784
g15
ag15
asS'deshalbsolltendiegesetzlichenkrankenkassendiesebehandlungennichtbezahlen.'
p785
(lp786
g15
asS'niemandsolltediem\xc3\xb6glichkeithaben,sichdie"pilledanach"rezeptfreiinderapothekezuholen.'
p787
(lp788
g9
asS'alternativeheilpraktikensolltengenausowie\xc3\xa4rztlichebehandlungenbezuschusstwerden,'
p789
(lp790
g6
asS'daskostet!'
p791
(lp792
g15
asS'hundebesitzersollenh\xc3\xb6heregeldstrafenf\xc3\xbcraufgehwegenhinterlassenehundehaufenbezahlen,'
p793
(lp794
g15
asS'solangeabernichtklarist,wiesoesdazukommt,solltedasgeldbesserf\xc3\xbcrbehandlungenausgegebenwerden,beidenenmanesmitsicherheitweiss.'
p795
(lp796
g15
ag6
ag15
ag6
asS'esistjederzeitm\xc3\xb6glich,einenstudienkreditaufzunehmenodersicheinstipendiumzuerarbeiten.'
p797
(lp798
g6
ag12
asS'f\xc3\xbcrdiesemenschenstellendiesp\xc3\xa4tenschlie\xc3\x9fungszeiten,dieinzwischenschonbisum12:00nachtsgehen,einegutealternativedar.'
p799
(lp800
g6
ag42
ag42
asS'abermitdenenarbeitendiedeutschendienstebekannterma\xc3\x9fenengzusammen.'
p801
(lp802
g6
asS'esbleibtjedochfragw\xc3\xbcrdig,obdietats\xc3\xa4chlichedurchf\xc3\xbchrungderartigerkontrollenauchgleichzeitigzurst\xc3\xa4rkereneinhaltungvongesetzenf\xc3\xbchrt,'
p803
(lp804
g9
ag15
asS'wennesschonmietpreiserh\xc3\xb6hungengibt,dannsollesalsoaucheinebeschr\xc3\xa4nkunggeben,umb\xc3\xb6sen\xc3\x9cberraschungenvorzubeugen.'
p805
(lp806
g15
ag6
asS'zudemisteinhoherluxusgrad(teurewohnungen)f\xc3\xbcrdiemehrheitdermenschennichtnotwendig,sondernvielmehreinewohnung\xc3\xbcberhaupt.'
p807
(lp808
g15
asS'gestern,alsunsdiet\xc3\xbcrstehererstnichtreinlassenwollten,dawarerauchganzpl\xc3\xb6tzlichweg.'
p809
(lp810
g15
ag42
asS'leiderkanndiesinmanchenf\xc3\xa4llenzuunliebsamenabh\xc3\xa4ngigkeitenf\xc3\xbchren.'
p811
(lp812
sS'amlenksystemmusszwarnochetwasgefeiltwerden,'
p813
(lp814
g9
asS'eineinfachgestaltetes,praktischesoutfitw\xc3\xbcrdedasvisuellegesamtbildderschuleberuhigen,unddenfokusaufcharakterundleistungendersch\xc3\xbcler-undnichtihrekaufkraft-lenken.'
p815
(lp816
g15
ag9
asS'superm\xc3\xa4rktenundeinkaufszentrensollteeserlaubtwerden,anbeliebigensonn-undfeiertagenzu\xc3\xb6ffnen.'
p817
(lp818
g6
asS'au\xc3\x9fervielleichtindenhochzeitenvontakethat.'
p819
(lp820
sS'diesw\xc3\xbcrdenurdazuf\xc3\xbchren,dasssichnurmenschenmitgutverdienendenelternodereinervorherigenausbildungundeinemnebenjobw\xc3\xa4hrenddesstudiums\xc3\xbcberhauptf\xc3\xbcreinstudiumbewerbenk\xc3\xb6nnten.'
p821
(lp822
g42
ag15
ag6
asS'nichtakademiker\xc3\xbcbersteuerabgabendazuzuverpflichten,anderendasstudiumzufinanzieren,scheintdagegennichtgerecht.'
p823
(lp824
g15
ag42
asS'k\xc3\xb6nnteessogarf\xc3\xbcrsozialenwohnungsbaumitbezahlbarenmietpreisengenutztwerden.'
p825
(lp826
g15
asS'auchmitdiesemkleinenteilk\xc3\xb6nntemananandererstellevielgutestun.'
p827
(lp828
g42
asS'dadurchw\xc3\xbcrdefinanziellschw\xc3\xa4chergestelltenderzugangerschwertoderverwehrt.'
p829
(lp830
g6
asS"au\xc3\x9ferdemverdr\xc3\xbccktersichmeistensgleichwenn'sbrenzligwird."
p831
(lp832
g15
asS'also,ichalsarbeitnehmerf\xc3\xa4ndeessehrpraktisch,zumindestanwochenendeneinkaufenzuk\xc3\xb6nnen.'
p833
(lp834
g15
ag6
asS'siewarennichtgenerellwirkungslos.'
p835
(lp836
g6
asS'auchwennmanmeinenk\xc3\xb6nnte,dassmannebendemmieterschutzeinenzus\xc3\xa4tzlichenneumieterschutzben\xc3\xb6tigt,'
p837
(lp838
g422
ag15
asS'dahernehmendiekostenf\xc3\xbcrdiesozialsystemeunddierentezu.'
p839
(lp840
g6
asS'ja,dennesisteinesehrvielschlimmerestrafe,f\xc3\xbcrimmerimgef\xc3\xa4ngniszuseinundvondeneigenengedankengequ\xc3\xa4ltzuwerden,alsschnellundeinfachdurcheineinjektionget\xc3\xb6tetzuwerden.'
p841
(lp842
g15
ag15
ag42
asS'undtraditionellerweiseistdieregierungsparteiimvorfeldvonbundestagswahlengro\xc3\x9fz\xc3\xbcgigmitpopul\xc3\xa4renversprechungen.'
p843
(lp844
g15
asS'einankaufvoncdsmitsteuerdatenvonsteuers\xc3\xbcndernkommtdahernichtinfrage.'
p845
(lp846
g15
asS'abergenaudasistleidernichtderfall.'
p847
(lp848
g42
asS'diessorgtinunsererstarkaufwirtschaftlichenerfolgausgerichtetengesellschaftf\xc3\xbcreinezumindestoberfl\xc3\xa4chlichegleichmachung,'
p849
(lp850
g15
asS'trotzdembrauchtderstaatbrauchtdietodesstrafealsabschreckungf\xc3\xbcrabscheulichestraftaten.'
p851
(lp852
g15
ag42
asS'aberwennsiedanndiebrieftaschez\xc3\xbcckenm\xc3\xbcssen,wirdihnendiefaulheitschonvergehen!'
p853
(lp854
g12
ag12
asS'esistjaanundf\xc3\xbcrsichgut,einanspruchsvolleresprogrammdurchgeb\xc3\xbchrenzuunterst\xc3\xbctzen.'
p855
(lp856
g15
ag15
asS'esisterstrebenswert,dassniemandseinverm\xc3\xb6genamfiskusvorbeischleust.'
p857
(lp858
g6
ag6
asS'wersp\xc3\xa4terstudiert,entscheidetsichohnehinbereitsinfr\xc3\xbcherenjahren.'
p859
(lp860
g12
ag9
asS'menschen,diejedochunterderwocheundsamstagsarbeiten,habendannallerdingseinproblem:alleanderenk\xc3\xb6nnenwerktagseinkaufengehen,siejedochnicht.'
p861
(lp862
g6
ag6
ag6
asS'weilesnichtauszuschliessenist,dassdiejustizsichnichtirrenkann.'
p863
(lp864
g15
ag6
asS'einedifferenzierteauseinandersetzungmitnebenwirkungenistvomlaienohne\xc3\xa4rztlicheberatungnichtzuleisten.'
p865
(lp866
g6
asS'aberbildungdarfinwohlstandsgesellschaftenwiedeutschlandkeinefragedesgeldessein.'
p867
(lp868
g6
asS'vielegegnerderpillef\xc3\xbchrenjedochan,dassdamitdieberatungdesarzteswegf\xc3\xa4lltundvielefrauensieunn\xc3\xb6tigeinnehmen.'
p869
(lp870
g9
ag12
ag6
asS'derw\xc3\xa4hleristskeptischergeworden.'
p871
(lp872
g15
asS'dielebenserwartungsteigtkontinuierlich,'
p873
(lp874
sS'esspieltdabeidochkeinerolle,dassdiebehandelndennichtden"\xc3\x84rzte-status"tragen.'
p875
(lp876
g9
asS'--injapanbildetesicheinemitderl\xc3\xa4ngevon3,2km--'
p877
(lp878
g42
asS'alsmotivationf\xc3\xbcreinestrafferestudiendisziplingibtesandereinstrumentarien.'
p879
(lp880
g6
asS'schlie\xc3\x9flichwollenwirunsererenblickaufdieweltwederdurchdiebrillederregierungnochdurchdievonreichenmedienunternehmernbekommen.'
p881
(lp882
g15
ag15
asS'anunserenschulensolltenkeineschul-uniformengetragenwerden.'
p883
(lp884
g6
asS'manchehundebesitzermeinen,daszahlenvonhundesteuerbezahleauchdiebeseitigungderartigerverschmutzungen,'
p885
(lp886
g6
ag6
asS'diesegebietewerdendurchdiesefaktoren(wohngesundheitundarbeitspl\xc3\xa4tze)auchwirtschaftlichaufgewertet.'
p887
(lp888
g15
asS'zwarwollendievermieterm\xc3\xb6glichstvielverdienen'
p889
(lp890
g6
asS'aberdashilftauchnichtswenndasganzevierteldenbachruntergeht.'
p891
(lp892
g15
ag42
asS'wirbrauchensienicht.'
p893
(lp894
g42
asS'undesstetigsinkendegeburtenratenzuverzeichnengibt.'
p895
(lp896
g9
asS'trotzdemsolltenallegleicherma\xc3\x9fenf\xc3\xbcrdiefinanzierungder\xc3\xb6ffentlichrechtlichensenderaufkommen,'
p897
(lp898
g15
asS'solltenauchcomputerspielenichtalsolympischedisziplinenanerkanntwerde.'
p899
(lp900
sS'uniformenrufenimmersogleichdieangstvorverlustderindividualit\xc3\xa4thervor,'
p901
(lp902
g6
asS'undnichtshilftberlineherausderfinanziellenpatschealsvielezahlungsfreudigebesucher.'
p903
(lp904
g9
asS'dennmankannjaan6tagendiewocheeinkaufen,'
p905
(lp906
g6
asS'jedentagwerdeninu-unds-bahnen,bussenundz\xc3\xbcgenfahrg\xc3\xa4stevonrowdysoderbetrunkenenbel\xc3\xa4stigt.'
p907
(lp908
g9
asS'morgenwerdeichzumerstenmalimmeinemlebenfallschirmspringen.'
p909
(lp910
g6
asS'abereinmalhineingetreten,scheinenihreexkremente\xc3\xbcberaushartn\xc3\xa4ckigandenschuhsohlenzuhaften.'
p911
(lp912
g42
asS'mankannzwarbehaupten,durchmehrstudiengeb\xc3\xbchrenw\xc3\xbcrdenauchdiebildungseinrichtungenbesserausgestattetwerden.'
p913
(lp914
g15
ag91
asS'vielleichtistindiesernachtschoneinneueslebenentstanden.'
p915
(lp916
g9
asS'sonstwirdsicheineneuefreizeitartbilden,inderdiemenschendiezeitinsuperm\xc3\xa4rktenanstattdrau\xc3\x9fenoderbeimgemeinsamengespr\xc3\xa4chenusw.verbringen.'
p917
(lp918
g6
ag15
asS'ichhalteeinerandbebauungdestempelhoferfeldesausst\xc3\xa4dtebaulichengr\xc3\xbcndenf\xc3\xbcrrichtig,'
p919
(lp920
g15
asS'meineelternsagen,dask\xc3\xb6nnteauchreinerzufallsein.'
p921
(lp922
g15
ag15
asS'antivirenprogrammesch\xc3\xbctzendenbenutzereinescomputersvorgefahrenausdeminternet.'
p923
(lp924
g6
asS'derenwerkzeuge,datenundknowhowwirdschonlangezuunserer\xc3\x9cberwachunggenutzt.'
p925
(lp926
g9
asS'dassdievermieterdanninderverwaltungihreseigentumsetwaseingeschr\xc3\xa4nktwerdenistkeinproblem,'
p927
(lp928
g6
asS'facebookwarnteindringlich,ichk\xc3\xb6nntedenkontaktzumeinenfreundenverlieren.'
p929
(lp930
g15
ag15
asS'inwenigenjahrzehntenwirdunseregesellschaft\xc3\xbcberaltertsein:'
p931
(lp932
sS'dasberlinerbasketballteamhateineern\xc3\xbcchterndesaisonhintersich.'
p933
(lp934
g12
asS'auchdieschulmedizinwirdkaumdarunterleiden.'
p935
(lp936
g9
asS'dadiebev\xc3\xb6lkerungindeutschlanddemographischbetrachtet\xc3\xbcberaltert'
p937
(lp938
g9
asS'oftsindnaturheilverfahrenf\xc3\xbcrdiepatientennichtsosehrbelastend.'
p939
(lp940
g6
asS'dennsiehatnureinemittelm\xc3\xa4\xc3\x9figeaufl\xc3\xb6sung'
p941
(lp942
g6
asS'tominunserefu\xc3\x9fballmannschaftaufzunehmenwarganzklareinfehler.'
p943
(lp944
g15
asS'werdiesdochtutoderversucht,solltenachm\xc3\xb6glichkeitzurrechenschaftgezogenwerden.'
p945
(lp946
g12
ag15
asS'solangesichergestelltwird,dassdasgeldwirklichdirektdenuniversit\xc3\xa4tenzugutekommt,kanndurchausweiterhinvonsozialergerechtigkeitgesprochenwerden.'
p947
(lp948
g6
asS'dochsolangediegeb\xc3\xbchrenzahlerkeineneinflussaufdieverteilungdergelderhaben,ver\xc3\xa4rgertsiederbeitragzurecht.'
p949
(lp950
g6
ag42
asS'g\xc3\xa4beeseinetodesstrafe,w\xc3\xbcrdedasbedeuten,dassesmenschenerlaubtwerdensoll,sich\xc3\xbcberanderezustellenund\xc3\xbcberderenlebenzuentscheiden.'
p951
(lp952
g6
ag6
ag42
ag6
asS'freddyundichm\xc3\xbcssengeschwistersein.'
p953
(lp954
g15
asS'diewirkungvielernaturheilmittelistnichterwiesen.'
p955
(lp956
g6
asS'durchdenankaufvonillegalerworbenensteuerdatenvonb\xc3\xbcrgernmachtsichderstaatselbstnichtnurzumverbrecher,sondernbezahltauchnochkriminelle.'
p957
(lp958
g12
ag15
asS'au\xc3\x9ferdemsindvielet\xc3\xa4tigkeitenindieserspartekeinegesch\xc3\xbctztenberufe,'
p959
(lp960
g42
asS'dasienuraufbekanntgewordenebedrohungenreagierenk\xc3\xb6nnen.'
p961
(lp962
g6
asS'dochistdas,wasanheutigenschulenfehlt,eherderechtegemeinschaftssinn,derdurcheingleichesgemeinsamesauftretenunterumst\xc3\xa4ndengest\xc3\xa4rktwird.'
p963
(lp964
g6
ag42
ag9
ag42
asS'jederdeutscheb\xc3\xbcrgerhateinrechtaufbildung.'
p965
(lp966
g6
asS'aberdaraufbrauchtmannichtzuhoffen.'
p967
(lp968
g42
asS'dadiefl\xc3\xa4chedemlandbzw.dembundgeh\xc3\xb6rt,'
p969
(lp970
g15
asS'allerdingsbringtdertoddenbetroffenenundangeh\xc3\xb6rigennichtmehralswenndieverbrechereinehaftstrafelangj\xc3\xa4hrigebekommenw\xc3\xbcrden.'
p971
(lp972
g15
asS'steuerdaten,dienichtkostenfreizurverf\xc3\xbcgunggestelltwerden,solltendahernichtvomstaatgekauftwerden.'
p973
(lp974
g6
ag15
asS'wasdiskriminierungfinanziellund/odersozialschlechtergestellterkinderreduzierenkann.'
p975
(lp976
sS'dasofortbeieinf\xc3\xbchrungvieleaktuellearbeitnehmergehobenenaltersanspruchaufdenrenteneintritth\xc3\xa4tten.'
p977
(lp978
g9
asS'ja,seinenm\xc3\xbcllimmerordentlichzutrennenistnervigundm\xc3\xbchselig.'
p979
(lp980
g6
asS'mietpreisesindbereitsheuteaufgrundbestehendergesetzeunddesmietspiegelszugunstendermieterstarkreguliert.'
p981
(lp982
g15
ag6
asS'undzurfinanzierungsollteu.a.gepr\xc3\xbcftwerden,wiebeistudentenausanderen(bundes-)l\xc3\xa4nderndiekostenvondiesenzuerstattensind.'
p983
(lp984
sS'auchgerichteunterliegenmenschlichenirrt\xc3\xbcmern.'
p985
(lp986
g6
asS'niemandkannihret\xc3\xa4tigkeitenimdetailnachvollziehen.'
p987
(lp988
g6
asS'ebensosollenfeiertagedasbleiben,wassiesind:f\xc3\xbcrdieeinentagedereinkehr,f\xc3\xbcrdieanderenbezahlterurlaub,dienichtvomeigentlichenurlaubabgehen.'
p989
(lp990
g6
ag9
ag6
asS'dahersolltenuniversit\xc3\xa4tenindeutschlandkeinestudiengeb\xc3\xbchrenverlangen.'
p991
(lp992
g42
asS'esistganzklar,dassdersonntageinruhetagbleibensoll.'
p993
(lp994
g6
asS"abersovielzufallgibt'sdochgarnicht."
p995
(lp996
g42
asS'dreiverschiedenem\xc3\xbcllbeutelm\xc3\xbcffelninderk\xc3\xbccheundm\xc3\xbcssenindreiunterschiedlichetonneneinsortiertwerden.'
p997
(lp998
g9
ag9
asS'imgrundew\xc3\xa4reesgerechtfertigt,wennalleuniversit\xc3\xa4tenindeutschlandstudiengeb\xc3\xbchrenverlangenw\xc3\xbcrden.'
p999
(lp1000
g6
ag6
asS'zwark\xc3\xb6nntediekameranochbessersein,'
p1001
(lp1002
g15
asS'ichw\xc3\xbcrdeesohnenachzudenkent\xc3\xb6ten.'
p1003
(lp1004
g15
asS'aberistf\xc3\xbcreinenneuenviruseinschutzgefunden,erhaltenihnalleinwindeseilemitdemautomatischenupdate.'
p1005
(lp1006
g12
ag42
asS'indertatistesjedochheuteschonso,dassdiesch\xc3\xbclerauchvermeintlich"uniform-freier"schulenimprinzipeineuniformtragen,dieausbestimmtenmarkenklamottenbesteht.'
p1007
(lp1008
g6
ag15
asS"f\xc3\xbcrdiepleitebank'hyporealestate'standdersteuerzahlerz.b.miteinemdreistelligenmilliardenbetragein."
p1009
(lp1010
g15
asS'dennwirbrauchenallgemeineundunabh\xc3\xa4ngigemedien.'
p1011
(lp1012
g15
asS'diestadt,vorallemdiegr\xc3\xbcnfl\xc3\xa4chen,sollenschlie\xc3\x9flichsaubergehaltenwerden,'
p1013
(lp1014
g6
ag6
asS'dieeusollteaufdaspolitischegescheheninderukraineeinflussnehmen.'
p1015
(lp1016
g15
asS'aberichwilldiesenunglaublichenmomentderfreiheitsp\xc3\xbcren,vondemspringerimmerwiederberichten.'
p1017
(lp1018
g6
ag12
asS'lautwetterberichtwirdesperfektesstrandwettergeben'
p1019
(lp1020
g15
asS'wennmaneinenkompromissausgr\xc3\xbcnfl\xc3\xa4cheundsozialemwohnungsgebietfindenw\xc3\xbcrde,solltedastempelhoferfeldaufjedenfallf\xc3\xbcrdenwohnungsbauzurverf\xc3\xbcgungstehen.'
p1021
(lp1022
g15
ag42
asS'angesichtsderhohenkaufpreisef\xc3\xbcrwohnungenmitbestehendenmietvertr\xc3\xa4gensinddieseeinunattraktivesinvestment.'
p1023
(lp1024
g6
asS'us-serienwerdendemtatortvorgezogen,'
p1025
(lp1026
g6
asS'dietodesstrafesollteweltweitabgeschafftwerden.'
p1027
(lp1028
g15
asS'klar,diem\xc3\xbcssenerstmalvondenwenigenordnungsbeamtenerwischtwerden,'
p1029
(lp1030
g12
asS'zwarsolleinjederausseinemeigentummaximalenprofitschlagenk\xc3\xb6nnen.'
p1031
(lp1032
g9
asS'schweinsteigeristjetztschonseitdreispieltagenverletzt.'
p1033
(lp1034
g15
asS'undderpersonelleverschlei\xc3\x9fphysischundpsychischimmermehrsteigt,'
p1035
(lp1036
g6
asS'diegesetzlichenkrankenkassensolltenauchbehandlungenbeimnatur-oderheilpraktikerzahlen.'
p1037
(lp1038
g6
asS'diekassenm\xc3\xbcssenbef\xc3\xa4higtwerden,dieentscheidungdesarztesf\xc3\xbcreinenaturheilbehandlunganzuerkennenundauchzubezahlen.'
p1039
(lp1040
g12
ag42
ag42
asS'dennsiedienendererholung.'
p1041
(lp1042
g6
asS'dabeiwerdeichjetzterstrechtzeitf\xc3\xbcrmeinefreundehaben.'
p1043
(lp1044
g42
asS'unseregesellschaftdrohtam"niemalsfeierabend"zu\xc3\xbcberhitzen.'
p1045
(lp1046
sS'dieangstvorbestrafungschrecktm\xc3\xb6rderalsonichtab.'
p1047
(lp1048
S'SE_RES'
p1049
asS'dochsoeinfachistesnicht.'
p1050
(lp1051
g15
asS'aberdaswirdmanjawohlkaumalsrichtigeschl\xc3\xa4gereidurchgehenlassen.'
p1052
(lp1053
g12
asS'deshalbsollteeseinentaginderwochegeben,andenendiesuperm\xc3\xa4rkteundeinkaufszentrengeschlossenbleiben.'
p1054
(lp1055
g6
ag42
asS'wennesh\xc3\xb6heregeldstrafenf\xc3\xbcraufgehwegenhinterlassenehundehaufengebenw\xc3\xbcrde,w\xc3\xbcrdeesvermutlichwenigerhundehaufengeben,'
p1056
(lp1057
g6
ag9
asS'einegutebenotungderarbeith\xc3\xa4ngtzudemauchentscheidendvonderbetreuungdurcheinenengagiertendozentenab.'
p1058
(lp1059
g6
asS'dieolympischendisziplinenentspringenaltentraditionen.'
p1060
(lp1061
g12
asS'alsoergibtsichauchhierdurchkeinvorteilf\xc3\xbcrdieimmomentzahlendenzuschauerder\xc3\x96ffentlichrechtlichensender.'
p1062
(lp1063
g15
asS'diealterndedeutschegesellschaftunterliegteinemdemographischenwandel'
p1064
(lp1065
g9
asS'dieerhofftenzielevonstudiengeb\xc3\xbchrenk\xc3\xb6nnenaufandereweiseerreichtwerden.'
p1066
(lp1067
g12
asS'eristeinwirtschaftsfaktor.'
p1068
(lp1069
g6
asS'davielebankenwegenge\xc3\xa4ndertergesch\xc3\xa4ftsbedingungenihrekundenselbstdr\xc3\xa4ngensichanzuzeigen.'
p1070
(lp1071
g15
asS'verursachtdurchdendreck,dengestankunddenteilweisesehrgro\xc3\x9fenaufwanddesentfernens.'
p1072
(lp1073
g6
asS'aufgrundvonzuvielenzufallsparameternsolltediebachelor-arbeitkeinegr\xc3\xb6\xc3\x9fererollespielen.'
p1074
(lp1075
g42
asS'diegeheimdienstem\xc3\xbcssendringendst\xc3\xa4rkervomparlamentkontrolliertwerden,'
p1076
(lp1077
g9
asS'kritikerf\xc3\xbchrenan,dasssiedasangebotder\xc3\x96ffentlichrechtlichensendergarnichtnutzenw\xc3\xbcrden.'
p1078
(lp1079
g6
ag9
asS'deutschlandsollteaufkeinenfalldietodesstrafeeinf\xc3\xbchren.'
p1080
(lp1081
g6
asS'oderalseinenzustarkeneingriffindenentscheidungsspielraumvonsch\xc3\xbclernundelternbegreifen.'
p1082
(lp1083
g15
asS'undk\xc3\xb6rperliche,geistigeundinsbesonderementalef\xc3\xa4higkeitenverlangtsomanchesvideospiel,wennichandasfinaledesletztenfifa-turniersdenke,mehrab,alseinekugel20meterweitzusto\xc3\x9fen.'
p1084
(lp1085
g15
ag12
ag42
asS'trotzdemmussmansagen,dassesdannwahrscheinlichvielwenigerdiesersendergibt,wennnichtmehrganzdeutschlandzahlenmuss.'
p1086
(lp1087
g6
ag9
ag42
asS'undvielesinddemmarktprinzipentsprechendauchbereitdieh\xc3\xb6herenmietenzuzahlen,'
p1088
(lp1089
g6
asS'dochsolltediesesproblemdurcheineklarstrukturiertevorauswahlgel\xc3\xb6stwerdenk\xc3\xb6nnen.'
p1090
(lp1091
g42
asS'wirsolltendaheralleunserenfleischkonsumrigoroseinschr\xc3\xa4nken.'
p1092
(lp1093
g6
asS'undwerwirdderenbreitereexpertiseinfragestellenwollen?'
p1094
(lp1095
g91
asS'auchkinder,erwachseneundanderetiered\xc3\xbcrfenkeinehaufenaufdiegehwegesetzen.'
p1096
(lp1097
g6
asS'einegeldstrafef\xc3\xbcrhaufenhinterlassungmutetzugegebenziemlichobrigkeitsstaatlichan,'
p1098
(lp1099
g6
asS'obwohlsieeinandereslebengenommenoderzerst\xc3\xb6rthaben?'
p1100
(lp1101
g6
asS'immerwiederrutschenkinderoder\xc3\xa4ltereleutedaraufaus.'
p1102
(lp1103
g6
asS'ohnesiew\xc3\xbcrdenwiraufeingro\xc3\x9fesma\xc3\x9fangesammeltenerfahrungenverzichten.'
p1104
(lp1105
g6
asS'qualit\xc3\xa4tanuniversit\xc3\xa4tenhatihrenpreis,'
p1106
(lp1107
g6
asS'zwarsteigtzunehmenddieanzahlanzuwanderungennachdeutschland,'
p1108
(lp1109
g6
asS'folglichmusseineseinerexfreundinnendortgewesensein.'
p1110
(lp1111
g12
asS'solangediemotivationdiesermenschennichtvonpropaganda,korruptionundmilit\xc3\xa4rischemdruckausgel\xc3\xb6stwerden.'
p1112
(lp1113
g6
asS'traurigerh\xc3\xb6hepunkt:imausverkauftenstadion60:87gegenschw\xc3\xa4chelndemannheimerverlieren.'
p1114
(lp1115
g12
asS'dietodesstrafewirdkeinenanderenvoneineruntatabhalten.'
p1116
(lp1117
g6
asS'geheimdienstegenie\xc3\x9fenscheinbarwillk\xc3\xbcrlichefreiheiten.'
p1118
(lp1119
g6
asS'ichglaube,derfritzhatsichinseinemlebennochniegepr\xc3\xbcgelt.'
p1120
(lp1121
g422
ag15
asS'mietpreiserh\xc3\xb6hungenbeieinerneuvermietungsindansichnichtsoschlimm,wennessichnurumeinenkleinenbetraghandelt,'
p1122
(lp1123
g15
ag42
asS'bef\xc3\xbcrworterdertodesstrafesetzenaufdieabschreckendewirkungsowiedieendg\xc3\xbcltigeeliminierungeinerpotentiellengefahr.'
p1124
(lp1125
g6
asS'solltesichdieeunichtindasdortigepolitischegescheheneinmischen.'
p1126
(lp1127
g15
asS'zwaristkinderkriegenindenletztenjahrenwiederinmodegekommen,'
p1128
(lp1129
g15
asS'dieukraineliegtdereuau\xc3\x9ferdemsowohlkulturellalsauchgeographischvieln\xc3\xa4heralsanderel\xc3\xa4nder,indenensichdieeuengagiert(hat).'
p1130
(lp1131
g6
asS'au\xc3\x9ferdemmussjederinseinemlebenca.3-10malumziehen,'
p1132
(lp1133
g6
asS'au\xc3\x9ferdemerleichtertesdasfindenvonschulschw\xc3\xa4nzern,diesichvielleichteinpaarletzteschulstundensparenwollen.'
p1134
(lp1135
g15
ag6
asS'aberf\xc3\xbcrschnappsch\xc3\xbcssereichtesdennoch.'
p1136
(lp1137
g42
asS'alsoistesgut,wenndiegesch\xc3\xa4fteansonn-undfeiertagennicht\xc3\xb6ffnen.'
p1138
(lp1139
g6
ag6
asS'selbstwennichf\xc3\xbcrdienstagnocheinreferatvorbereitenmuss.'
p1140
(lp1141
g15
asS'dieh\xc3\xa4ufigpreiswerteralsmedikamentederschulmedizinsind,diejaauchbezahltwerden.'
p1142
(lp1143
g6
ag6
asS'dochsolltediesemproblemliebermitausf\xc3\xbchrlicher,vorherigeraufkl\xc3\xa4rungbegegnetwerden.'
p1144
(lp1145
g42
asS'seitmenschengedenkengibtesnaturheilpraktiken,'
p1146
(lp1147
g6
asS'dasneuesmartphonexyz-123kannichjedemnurempfehlen.'
p1148
(lp1149
g15
asS'allerdingsistdasfeldmomentanf\xc3\xbcrvielebesucherundberliner,geradeimfr\xc3\xbchlingundsommer,zueinemattraktivenfreizeitparkmitsportm\xc3\xb6glichkeitengeworden.'
p1150
(lp1151
g42
ag42
ag15
asS'naturheilverfahrensindinvielenbereichenerwiesenegesundheitsf\xc3\xb6rderndebehandlungsmethoden,'
p1152
(lp1153
g6
asS'dahermachtessinn,dassdiebachelorarbeitnureinenrelativkleinenteilderendnoteausmacht(15von120sp).'
p1154
(lp1155
g6
asS'dahersolltenkeineungepr\xc3\xbcftenundunanerkanntenbehandlungenbeinaturheilkundlernvondenkassenerstattetwerden.'
p1156
(lp1157
g15
asS'dadurchentstehteineunachtsamkeitimstra\xc3\x9fenverkehr,dievergleichbarmiteinemdeliktderstvoist.'
p1158
(lp1159
g9
ag15
asS'zwark\xc3\xb6nnteernocheinmalrichtigdiewerbetrommelr\xc3\xbchren,'
p1160
(lp1161
g15
asS'teilweiselaufennursendungenf\xc3\xbcrdie\xc3\xa4lteregenerationzuspielfilmzeiten,wiesosolltenalsoalledaf\xc3\xbcrzahlen?'
p1162
(lp1163
g91
ag6
as.